; Function Attrs: mustprogress nounwind uwtable
define internal fastcc void @_ZNSt8_Rb_treeISt4pairIN5Yosys5RTLIL8IdStringES3_ES0_IKS4_N12_GLOBAL__N_118ConnwrappersWorker10portdecl_tEESt10_Select1stIS9_ESt4lessIS4_ESaIS9_EE8_M_eraseEPSt13_Rb_tree_nodeIS9_E(ptr noundef %0) unnamed_addr #6 align 2 {
  %.not1 = icmp eq ptr %0, null
  br i1 %.not1, label %._crit_edge, label %.lr.ph

.lr.ph:                                           ; preds = %1, %.lr.ph
  %.02 = phi ptr [ %.0.val, %.lr.ph ], [ %0, %1 ]
  %2 = getelementptr i8, ptr %.02, i64 24
  %.0.val6 = load ptr, ptr %2, align 8, !tbaa !207
  tail call fastcc void @_ZNSt8_Rb_treeISt4pairIN5Yosys5RTLIL8IdStringES3_ES0_IKS4_N12_GLOBAL__N_118ConnwrappersWorker10portdecl_tEESt10_Select1stIS9_ESt4lessIS4_ESaIS9_EE8_M_eraseEPSt13_Rb_tree_nodeIS9_E(ptr noundef %.0.val6)
  %3 = getelementptr i8, ptr %.02, i64 16
  %.0.val = load ptr, ptr %3, align 8, !tbaa !267
  tail call fastcc void @_ZNSt8_Rb_treeISt4pairIN5Yosys5RTLIL8IdStringES3_ES0_IKS4_N12_GLOBAL__N_118ConnwrappersWorker10portdecl_tEESt10_Select1stIS9_ESt4lessIS4_ESaIS9_EE12_M_drop_nodeEPSt13_Rb_tree_nodeIS9_E(ptr noundef %.02) #24
  %.not = icmp eq ptr %.0.val, null
  br i1 %.not, label %._crit_edge, label %.lr.ph, !llvm.loop !269

._crit_edge:                                      ; preds = %.lr.ph, %1
  ret void
}